; ModuleID = '17/150.c'
source_filename = "17/150.c"
target datalayout = "e-m:e-p270:32:32-p271:32:32-p272:64:64-i64:64-f80:128-n8:16:32:64-S128"
target triple = "x86_64-pc-linux-gnu"

@.str = private unnamed_addr constant [3 x i8] c"%d\00", align 1
@.str.1 = private unnamed_addr constant [3 x i8] c"%s\00", align 1
@.str.2 = private unnamed_addr constant [4 x i8] c"%s\0A\00", align 1

; Function Attrs: noinline nounwind uwtable
define dso_local i32 @main(i32 %0, i8** %1) #0 {
  %3 = alloca i32, align 4
  %4 = alloca i32, align 4
  %5 = alloca i8**, align 8
  %6 = alloca i32, align 4
  %7 = alloca i32, align 4
  %8 = alloca i32, align 4
  %9 = alloca i32, align 4
  %10 = alloca i32, align 4
  %11 = alloca i32, align 4
  %12 = alloca [101 x i8], align 16
  store i32 0, i32* %3, align 4
  store i32 %0, i32* %4, align 4
  store i8** %1, i8*** %5, align 8
  %13 = bitcast [101 x i8]* %12 to i8*
  call void @llvm.memset.p0i8.i64(i8* align 16 %13, i8 0, i64 101, i1 false)
  %14 = bitcast i8* %13 to <{ i8, [100 x i8] }>*
  %15 = getelementptr inbounds <{ i8, [100 x i8] }>, <{ i8, [100 x i8] }>* %14, i32 0, i32 0
  store i8 48, i8* %15, align 16
  %16 = call i32 (i8*, ...) @__isoc99_scanf(i8* getelementptr inbounds ([3 x i8], [3 x i8]* @.str, i64 0, i64 0), i32* %6)
  %17 = call i32 @getchar()
  store i32 0, i32* %7, align 4
  br label %18

18:                                               ; preds = %157, %2
  %19 = load i32, i32* %7, align 4
  %20 = load i32, i32* %6, align 4
  %21 = icmp slt i32 %19, %20
  br i1 %21, label %22, label %160

22:                                               ; preds = %18
  %23 = getelementptr inbounds [101 x i8], [101 x i8]* %12, i64 0, i64 0
  %24 = call i32 (i8*, ...) @__isoc99_scanf(i8* getelementptr inbounds ([3 x i8], [3 x i8]* @.str.1, i64 0, i64 0), i8* %23)
  %25 = getelementptr inbounds [101 x i8], [101 x i8]* %12, i64 0, i64 0
  %26 = call i32 (i8*, ...) @printf(i8* getelementptr inbounds ([4 x i8], [4 x i8]* @.str.2, i64 0, i64 0), i8* %25)
  %27 = getelementptr inbounds [101 x i8], [101 x i8]* %12, i64 0, i64 0
  %28 = call i64 @strlen(i8* %27) #4
  %29 = trunc i64 %28 to i32
  store i32 %29, i32* %11, align 4
  %30 = load i32, i32* %11, align 4
  %31 = sub nsw i32 %30, 1
  store i32 %31, i32* %8, align 4
  br label %32

32:                                               ; preds = %120, %22
  %33 = load i32, i32* %8, align 4
  %34 = icmp sge i32 %33, 0
  br i1 %34, label %35, label %123

35:                                               ; preds = %32
  %36 = load i32, i32* %8, align 4
  %37 = sext i32 %36 to i64
  %38 = getelementptr inbounds [101 x i8], [101 x i8]* %12, i64 0, i64 %37
  %39 = load i8, i8* %38, align 1
  %40 = sext i8 %39 to i32
  %41 = icmp ne i32 %40, 40
  br i1 %41, label %42, label %53

42:                                               ; preds = %35
  %43 = load i32, i32* %8, align 4
  %44 = sext i32 %43 to i64
  %45 = getelementptr inbounds [101 x i8], [101 x i8]* %12, i64 0, i64 %44
  %46 = load i8, i8* %45, align 1
  %47 = sext i8 %46 to i32
  %48 = icmp ne i32 %47, 41
  br i1 %48, label %49, label %53

49:                                               ; preds = %42
  %50 = load i32, i32* %8, align 4
  %51 = sext i32 %50 to i64
  %52 = getelementptr inbounds [101 x i8], [101 x i8]* %12, i64 0, i64 %51
  store i8 32, i8* %52, align 1
  br label %53

53:                                               ; preds = %49, %42, %35
  %54 = load i32, i32* %8, align 4
  %55 = sext i32 %54 to i64
  %56 = getelementptr inbounds [101 x i8], [101 x i8]* %12, i64 0, i64 %55
  %57 = load i8, i8* %56, align 1
  %58 = sext i8 %57 to i32
  %59 = icmp eq i32 %58, 40
  br i1 %59, label %60, label %69

60:                                               ; preds = %53
  %61 = load i32, i32* %8, align 4
  %62 = load i32, i32* %11, align 4
  %63 = sub nsw i32 %62, 1
  %64 = icmp eq i32 %61, %63
  br i1 %64, label %65, label %69

65:                                               ; preds = %60
  %66 = load i32, i32* %8, align 4
  %67 = sext i32 %66 to i64
  %68 = getelementptr inbounds [101 x i8], [101 x i8]* %12, i64 0, i64 %67
  store i8 36, i8* %68, align 1
  br label %69

69:                                               ; preds = %65, %60, %53
  %70 = load i32, i32* %8, align 4
  %71 = sext i32 %70 to i64
  %72 = getelementptr inbounds [101 x i8], [101 x i8]* %12, i64 0, i64 %71
  %73 = load i8, i8* %72, align 1
  %74 = sext i8 %73 to i32
  %75 = icmp eq i32 %74, 40
  br i1 %75, label %76, label %119

76:                                               ; preds = %69
  %77 = load i32, i32* %8, align 4
  store i32 %77, i32* %9, align 4
  %78 = load i32, i32* %9, align 4
  store i32 %78, i32* %10, align 4
  br label %79

79:                                               ; preds = %98, %76
  %80 = load i32, i32* %10, align 4
  %81 = load i32, i32* %11, align 4
  %82 = icmp slt i32 %80, %81
  br i1 %82, label %83, label %101

83:                                               ; preds = %79
  %84 = load i32, i32* %10, align 4
  %85 = sext i32 %84 to i64
  %86 = getelementptr inbounds [101 x i8], [101 x i8]* %12, i64 0, i64 %85
  %87 = load i8, i8* %86, align 1
  %88 = sext i8 %87 to i32
  %89 = icmp eq i32 %88, 41
  br i1 %89, label %90, label %97

90:                                               ; preds = %83
  %91 = load i32, i32* %10, align 4
  %92 = sext i32 %91 to i64
  %93 = getelementptr inbounds [101 x i8], [101 x i8]* %12, i64 0, i64 %92
  store i8 32, i8* %93, align 1
  %94 = load i32, i32* %8, align 4
  %95 = sext i32 %94 to i64
  %96 = getelementptr inbounds [101 x i8], [101 x i8]* %12, i64 0, i64 %95
  store i8 32, i8* %96, align 1
  br label %101

97:                                               ; preds = %83
  br label %98

98:                                               ; preds = %97
  %99 = load i32, i32* %10, align 4
  %100 = add nsw i32 %99, 1
  store i32 %100, i32* %10, align 4
  br label %79

101:                                              ; preds = %90, %79
  %102 = load i32, i32* %10, align 4
  %103 = load i32, i32* %11, align 4
  %104 = sub nsw i32 %103, 1
  %105 = icmp eq i32 %102, %104
  br i1 %105, label %106, label %118

106:                                              ; preds = %101
  %107 = load i32, i32* %11, align 4
  %108 = sub nsw i32 %107, 1
  %109 = sext i32 %108 to i64
  %110 = getelementptr inbounds [101 x i8], [101 x i8]* %12, i64 0, i64 %109
  %111 = load i8, i8* %110, align 1
  %112 = sext i8 %111 to i32
  %113 = icmp ne i32 %112, 32
  br i1 %113, label %114, label %118

114:                                              ; preds = %106
  %115 = load i32, i32* %8, align 4
  %116 = sext i32 %115 to i64
  %117 = getelementptr inbounds [101 x i8], [101 x i8]* %12, i64 0, i64 %116
  store i8 36, i8* %117, align 1
  br label %118

118:                                              ; preds = %114, %106, %101
  br label %119

119:                                              ; preds = %118, %69
  br label %120

120:                                              ; preds = %119
  %121 = load i32, i32* %8, align 4
  %122 = add nsw i32 %121, -1
  store i32 %122, i32* %8, align 4
  br label %32

123:                                              ; preds = %32
  store i32 0, i32* %8, align 4
  br label %124

124:                                              ; preds = %151, %123
  %125 = load i32, i32* %8, align 4
  %126 = load i32, i32* %11, align 4
  %127 = icmp slt i32 %125, %126
  br i1 %127, label %128, label %154

128:                                              ; preds = %124
  %129 = load i32, i32* %8, align 4
  %130 = sext i32 %129 to i64
  %131 = getelementptr inbounds [101 x i8], [101 x i8]* %12, i64 0, i64 %130
  %132 = load i8, i8* %131, align 1
  %133 = sext i8 %132 to i32
  %134 = icmp eq i32 %133, 41
  br i1 %134, label %135, label %139

135:                                              ; preds = %128
  %136 = load i32, i32* %8, align 4
  %137 = sext i32 %136 to i64
  %138 = getelementptr inbounds [101 x i8], [101 x i8]* %12, i64 0, i64 %137
  store i8 63, i8* %138, align 1
  br label %139

139:                                              ; preds = %135, %128
  %140 = load i32, i32* %8, align 4
  %141 = sext i32 %140 to i64
  %142 = getelementptr inbounds [101 x i8], [101 x i8]* %12, i64 0, i64 %141
  %143 = load i8, i8* %142, align 1
  %144 = sext i8 %143 to i32
  %145 = icmp eq i32 %144, 40
  br i1 %145, label %146, label %150

146:                                              ; preds = %139
  %147 = load i32, i32* %8, align 4
  %148 = sext i32 %147 to i64
  %149 = getelementptr inbounds [101 x i8], [101 x i8]* %12, i64 0, i64 %148
  store i8 36, i8* %149, align 1
  br label %150

150:                                              ; preds = %146, %139
  br label %151

151:                                              ; preds = %150
  %152 = load i32, i32* %8, align 4
  %153 = add nsw i32 %152, 1
  store i32 %153, i32* %8, align 4
  br label %124

154:                                              ; preds = %124
  %155 = getelementptr inbounds [101 x i8], [101 x i8]* %12, i64 0, i64 0
  %156 = call i32 (i8*, ...) @printf(i8* getelementptr inbounds ([4 x i8], [4 x i8]* @.str.2, i64 0, i64 0), i8* %155)
  br label %157

157:                                              ; preds = %154
  %158 = load i32, i32* %7, align 4
  %159 = add nsw i32 %158, 1
  store i32 %159, i32* %7, align 4
  br label %18

160:                                              ; preds = %18
  ret i32 0
}

; Function Attrs: argmemonly nounwind willreturn
declare void @llvm.memset.p0i8.i64(i8* nocapture writeonly, i8, i64, i1 immarg) #1

declare dso_local i32 @__isoc99_scanf(i8*, ...) #2

declare dso_local i32 @getchar() #2

declare dso_local i32 @printf(i8*, ...) #2

; Function Attrs: nounwind readonly
declare dso_local i64 @strlen(i8*) #3


!llvm.module.flags = !{!0}
!llvm.ident = !{!1}

!0 = !{i32 1, !"wchar_size", i32 4}
!1 = !{!"clang version 10.0.0-4ubuntu1 "}
